target datalayout = "e-m:e-p270:32:32-p271:32:32-p272:64:64-i64:64-i128:128-f80:128-n8:16:32:64-S128"
target triple = "x86_64-pc-linux-gnu"

%struct.rb_data_type_struct = type { ptr, %struct.anon, ptr, ptr, i64 }
%struct.anon = type { ptr, ptr, ptr, ptr, [1 x ptr] }
%struct.rb_io_buffer = type { ptr, i64, i32, i64 }

@rb_io_buffer_type = internal constant %struct.rb_data_type_struct { ptr @.str.108, %struct.anon { ptr @rb_io_buffer_type_mark, ptr @rb_io_buffer_type_free, ptr @rb_io_buffer_type_size, ptr null, [1 x ptr] zeroinitializer }, ptr null, ptr null, i64 35 }, align 8
@.str.14 = private unnamed_addr constant [34 x i8] c"\0A(and %zu more bytes not printed)\00", align 1

; Function Attrs: nounwind sspstrong uwtable
define internal i32 @io_buffer_validate(ptr noundef %0) #0 {
  %2 = alloca i32, align 4
  %3 = alloca ptr, align 8
  store ptr %0, ptr %3, align 8, !tbaa !11
  %4 = load ptr, ptr %3, align 8, !tbaa !11
  %5 = getelementptr inbounds nuw %struct.rb_io_buffer, ptr %4, i32 0, i32 3
  %6 = load i64, ptr %5, align 8, !tbaa !13
  %7 = icmp ne i64 %6, 4
  br i1 %7, label %8, label %19

8:                                                ; preds = %1
  %9 = load ptr, ptr %3, align 8, !tbaa !11
  %10 = getelementptr inbounds nuw %struct.rb_io_buffer, ptr %9, i32 0, i32 3
  %11 = load i64, ptr %10, align 8, !tbaa !13
  %12 = load ptr, ptr %3, align 8, !tbaa !11
  %13 = getelementptr inbounds nuw %struct.rb_io_buffer, ptr %12, i32 0, i32 0
  %14 = load ptr, ptr %13, align 8, !tbaa !17
  %15 = load ptr, ptr %3, align 8, !tbaa !11
  %16 = getelementptr inbounds nuw %struct.rb_io_buffer, ptr %15, i32 0, i32 1
  %17 = load i64, ptr %16, align 8, !tbaa !19
  %18 = call i32 @io_buffer_validate_slice(i64 noundef %11, ptr noundef %14, i64 noundef %17)
  store i32 %18, ptr %2, align 4
  br label %20

19:                                               ; preds = %1
  store i32 1, ptr %2, align 4
  br label %20

20:                                               ; preds = %19, %8
  %21 = load i32, ptr %2, align 4
  ret i32 %21
}

; Function Attrs: nounwind sspstrong uwtable
define hidden i64 @rb_io_buffer_inspect(i64 noundef %0) #0 {
  %2 = alloca i64, align 8
  %3 = alloca ptr, align 8
  %4 = alloca i64, align 8
  %5 = alloca i64, align 8
  %6 = alloca i32, align 4
  store i64 %0, ptr %2, align 8, !tbaa !20
  call void @llvm.lifetime.start.p0(i64 8, ptr %3) #22
  store ptr null, ptr %3, align 8, !tbaa !11
  %7 = load i64, ptr %2, align 8, !tbaa !20
  %8 = call ptr @rb_check_typeddata(i64 noundef %7, ptr noundef @rb_io_buffer_type)
  store ptr %8, ptr %3, align 8, !tbaa !11
  call void @llvm.lifetime.start.p0(i64 8, ptr %4) #22
  %9 = load i64, ptr %2, align 8, !tbaa !20
  %10 = call i64 @rb_io_buffer_to_s(i64 noundef %9)
  store i64 %10, ptr %4, align 8, !tbaa !20
  %11 = load ptr, ptr %3, align 8, !tbaa !11
  %12 = call i32 @io_buffer_validate(ptr noundef %11)
  %13 = icmp ne i32 %12, 0
  br i1 %13, label %14, label %39

14:                                               ; preds = %1
  call void @llvm.lifetime.start.p0(i64 8, ptr %5) #22
  %15 = load ptr, ptr %3, align 8, !tbaa !11
  %16 = getelementptr inbounds nuw %struct.rb_io_buffer, ptr %15, i32 0, i32 1
  %17 = load i64, ptr %16, align 8, !tbaa !19
  store i64 %17, ptr %5, align 8, !tbaa !20
  call void @llvm.lifetime.start.p0(i64 4, ptr %6) #22
  store i32 0, ptr %6, align 4, !tbaa !32
  %18 = load i64, ptr %5, align 8, !tbaa !20
  %19 = icmp ugt i64 %18, 256
  br i1 %19, label %20, label %21

20:                                               ; preds = %14
  store i64 256, ptr %5, align 8, !tbaa !20
  store i32 1, ptr %6, align 4, !tbaa !32
  br label %21

21:                                               ; preds = %20, %14
  %22 = load i64, ptr %4, align 8, !tbaa !20
  %23 = load ptr, ptr %3, align 8, !tbaa !11
  %24 = getelementptr inbounds nuw %struct.rb_io_buffer, ptr %23, i32 0, i32 0
  %25 = load ptr, ptr %24, align 8, !tbaa !17
  %26 = load i64, ptr %5, align 8, !tbaa !20
  %27 = call i64 @io_buffer_hexdump(i64 noundef %22, i64 noundef 16, ptr noundef %25, i64 noundef %26, i64 noundef 0, i32 noundef 0)
  %28 = load i32, ptr %6, align 4, !tbaa !32
  %29 = icmp ne i32 %28, 0
  br i1 %29, label %30, label %38

30:                                               ; preds = %21
  %31 = load i64, ptr %4, align 8, !tbaa !20
  %32 = load ptr, ptr %3, align 8, !tbaa !11
  %33 = getelementptr inbounds nuw %struct.rb_io_buffer, ptr %32, i32 0, i32 1
  %34 = load i64, ptr %33, align 8, !tbaa !19
  %35 = load i64, ptr %5, align 8, !tbaa !20
  %36 = sub i64 %34, %35
  %37 = call i64 (i64, ptr, ...) @rb_str_catf(i64 noundef %31, ptr noundef @.str.14, i64 noundef %36)
  br label %38

38:                                               ; preds = %30, %21
  call void @llvm.lifetime.end.p0(i64 4, ptr %6) #22
  call void @llvm.lifetime.end.p0(i64 8, ptr %5) #22
  br label %39

39:                                               ; preds = %38, %1
  %40 = load i64, ptr %4, align 8, !tbaa !20
  call void @llvm.lifetime.end.p0(i64 8, ptr %4) #22
  call void @llvm.lifetime.end.p0(i64 8, ptr %3) #22
  ret i64 %40
}