; Function Attrs: nounwind sspstrong uwtable
define hidden i64 @rb_io_buffer_inspect(i64 noundef %0) #0 {
  %2 = tail call ptr @rb_check_typeddata(i64 noundef %0, ptr noundef nonnull @rb_io_buffer_type) #25
  %3 = tail call i64 @rb_io_buffer_to_s(i64 noundef %0)
  %4 = getelementptr inbounds nuw i8, ptr %2, i64 24
  %5 = load i64, ptr %4, align 8, !tbaa !7
  %.not.i = icmp eq i64 %5, 4
  br i1 %.not.i, label %io_buffer_validate.exit.thread, label %io_buffer_validate.exit

io_buffer_validate.exit:                          ; preds = %1
  %6 = load ptr, ptr %2, align 8, !tbaa !14
  %7 = getelementptr inbounds nuw i8, ptr %2, i64 8
  %8 = load i64, ptr %7, align 8, !tbaa !16
  %9 = tail call fastcc i32 @io_buffer_validate_slice(i64 noundef %5, ptr noundef %6, i64 noundef %8)
  %.not = icmp eq i32 %9, 0
  br i1 %.not, label %19, label %io_buffer_validate.exit.thread

io_buffer_validate.exit.thread:                   ; preds = %1, %io_buffer_validate.exit
  %10 = getelementptr inbounds nuw i8, ptr %2, i64 8
  %11 = load i64, ptr %10, align 8, !tbaa !16
  %12 = icmp ult i64 %11, 257
  %spec.select = select i1 %12, i64 %11, i64 256
  %13 = load ptr, ptr %2, align 8, !tbaa !14
  %14 = tail call fastcc i64 @io_buffer_hexdump(i64 noundef %3, i64 noundef 16, ptr noundef %13, i64 noundef %spec.select, i64 noundef 0, i32 noundef 0)
  br i1 %12, label %19, label %15

15:                                               ; preds = %io_buffer_validate.exit.thread
  %16 = load i64, ptr %10, align 8, !tbaa !16
  %17 = add i64 %16, -256
  %18 = tail call i64 (i64, ptr, ...) @rb_str_catf(i64 noundef %3, ptr noundef nonnull @.str.14, i64 noundef %17) #25
  br label %19

19:                                               ; preds = %io_buffer_validate.exit.thread, %15, %io_buffer_validate.exit
  ret i64 %3
}